target datalayout = "e-m:e-p270:32:32-p271:32:32-p272:64:64-i64:64-i128:128-f80:128-n8:16:32:64-S128"
target triple = "x86_64-pc-linux-gnu"

%"class.std::basic_string_view" = type { i64, ptr }
%"class.std::__cxx11::basic_string" = type { %"struct.std::__cxx11::basic_string<char>::_Alloc_hider", i64, %union.anon }
%"struct.std::__cxx11::basic_string<char>::_Alloc_hider" = type { ptr }
%union.anon = type { i64, [8 x i8] }
%"class.std::allocator.0" = type { i8 }

@_ZTISt9exception = external constant ptr
@_ZN3nix9verbosityE = external global i32, align 4
@_ZN3nix6loggerE = external global ptr, align 8
@.str.7 = private unnamed_addr constant [21 x i8] c"error (ignored): %1%\00", align 1

; Function Attrs: mustprogress nounwind uwtable
define linkonce_odr noundef ptr @_ZNKSt7__cxx1112basic_stringIcSt11char_traitsIcESaIcEE7_M_dataEv(ptr noundef nonnull align 8 dereferenceable(32) %0) #2 comdat align 2 {
  %2 = alloca ptr, align 8
  store ptr %0, ptr %2, align 8
  %3 = load ptr, ptr %2, align 8
  %4 = getelementptr inbounds %"class.std::__cxx11::basic_string", ptr %3, i32 0, i32 0
  %5 = getelementptr inbounds %"struct.std::__cxx11::basic_string<char>::_Alloc_hider", ptr %4, i32 0, i32 0
  %6 = load ptr, ptr %5, align 8
  ret ptr %6
}

; Function Attrs: mustprogress nounwind uwtable
define linkonce_odr void @_ZNSt17basic_string_viewIcSt11char_traitsIcEEC2EPKcm(ptr noundef nonnull align 8 dereferenceable(16) %0, ptr noundef %1, i64 noundef %2) unnamed_addr #2 comdat align 2 {
  %4 = alloca ptr, align 8
  %5 = alloca ptr, align 8
  %6 = alloca i64, align 8
  store ptr %0, ptr %4, align 8
  store ptr %1, ptr %5, align 8
  store i64 %2, ptr %6, align 8
  %7 = load ptr, ptr %4, align 8
  %8 = getelementptr inbounds %"class.std::basic_string_view", ptr %7, i32 0, i32 0
  %9 = load i64, ptr %6, align 8
  store i64 %9, ptr %8, align 8
  %10 = getelementptr inbounds %"class.std::basic_string_view", ptr %7, i32 0, i32 1
  %11 = load ptr, ptr %5, align 8
  store ptr %11, ptr %10, align 8
  ret void
}

; Function Attrs: mustprogress nounwind uwtable
define linkonce_odr noundef i64 @_ZNKSt7__cxx1112basic_stringIcSt11char_traitsIcESaIcEE4sizeEv(ptr noundef nonnull align 8 dereferenceable(32) %0) #2 comdat align 2 {
  %2 = alloca ptr, align 8
  store ptr %0, ptr %2, align 8
  %3 = load ptr, ptr %2, align 8
  %4 = getelementptr inbounds %"class.std::__cxx11::basic_string", ptr %3, i32 0, i32 1
  %5 = load i64, ptr %4, align 8
  ret i64 %5
}

; Function Attrs: mustprogress nounwind uwtable
define linkonce_odr noundef ptr @_ZNKSt7__cxx1112basic_stringIcSt11char_traitsIcESaIcEE4dataEv(ptr noundef nonnull align 8 dereferenceable(32) %0) #2 comdat align 2 {
  %2 = alloca ptr, align 8
  store ptr %0, ptr %2, align 8
  %3 = load ptr, ptr %2, align 8
  %4 = call noundef ptr @_ZNKSt7__cxx1112basic_stringIcSt11char_traitsIcESaIcEE7_M_dataEv(ptr noundef nonnull align 8 dereferenceable(32) %3)
  ret ptr %4
}

; Function Attrs: mustprogress nounwind uwtable
define linkonce_odr { i64, ptr } @_ZNKSt7__cxx1112basic_stringIcSt11char_traitsIcESaIcEEcvSt17basic_string_viewIcS2_EEv(ptr noundef nonnull align 8 dereferenceable(32) %0) #2 comdat align 2 {
  %2 = alloca %"class.std::basic_string_view", align 8
  %3 = alloca ptr, align 8
  store ptr %0, ptr %3, align 8
  %4 = load ptr, ptr %3, align 8
  %5 = call noundef ptr @_ZNKSt7__cxx1112basic_stringIcSt11char_traitsIcESaIcEE4dataEv(ptr noundef nonnull align 8 dereferenceable(32) %4) #1
  %6 = call noundef i64 @_ZNKSt7__cxx1112basic_stringIcSt11char_traitsIcESaIcEE4sizeEv(ptr noundef nonnull align 8 dereferenceable(32) %4) #1
  call void @_ZNSt17basic_string_viewIcSt11char_traitsIcEEC2EPKcm(ptr noundef nonnull align 8 dereferenceable(16) %2, ptr noundef %5, i64 noundef %6) #1
  %7 = load { i64, ptr }, ptr %2, align 8
  ret { i64, ptr } %7
}

; Function Attrs: mustprogress uwtable
define void @_ZN3nix15ignoreExceptionENS_9VerbosityE(i32 noundef %0) #5 personality ptr @__gxx_personality_v0 {
  %2 = alloca i32, align 4
  %3 = alloca ptr, align 8
  %4 = alloca i32, align 4
  %5 = alloca ptr, align 8
  %6 = alloca i32, align 4
  %7 = alloca %"class.std::basic_string_view", align 8
  %8 = alloca %"class.std::__cxx11::basic_string", align 8
  %9 = alloca %"class.std::__cxx11::basic_string", align 8
  %10 = alloca %"class.std::allocator.0", align 1
  %11 = alloca ptr, align 8
  store i32 %0, ptr %2, align 4
  invoke void @__cxa_rethrow() #18
          to label %82 unwind label %12

12:                                               ; preds = %1
  %13 = landingpad { ptr, i32 }
          catch ptr @_ZTISt9exception
          catch ptr null
  %14 = extractvalue { ptr, i32 } %13, 0
  store ptr %14, ptr %3, align 8
  %15 = extractvalue { ptr, i32 } %13, 1
  store i32 %15, ptr %4, align 4
  br label %16

16:                                               ; preds = %12
  %17 = load i32, ptr %4, align 4
  %18 = call i32 @llvm.eh.typeid.for(ptr @_ZTISt9exception) #1
  %19 = icmp eq i32 %17, %18
  br i1 %19, label %20, label %75

20:                                               ; preds = %16
  %21 = load ptr, ptr %3, align 8
  %22 = call ptr @__cxa_begin_catch(ptr %21) #1
  store ptr %22, ptr %5, align 8
  br label %23

23:                                               ; preds = %20
  %24 = load i32, ptr %2, align 4
  store i32 %24, ptr %6, align 4
  %25 = load i32, ptr %6, align 4
  %26 = load i32, ptr @_ZN3nix9verbosityE, align 4
  %27 = icmp sle i32 %25, %26
  br i1 %27, label %28, label %65

28:                                               ; preds = %23
  %29 = load ptr, ptr @_ZN3nix6loggerE, align 8
  %30 = load i32, ptr %6, align 4
  call void @_ZNSaIcEC1Ev(ptr noundef nonnull align 1 dereferenceable(1) %10) #1
  invoke void @_ZNSt7__cxx1112basic_stringIcSt11char_traitsIcESaIcEEC2IS3_EEPKcRKS3_(ptr noundef nonnull align 8 dereferenceable(32) %9, ptr noundef @.str.7, ptr noundef nonnull align 1 dereferenceable(1) %10)
          to label %31 unwind label %51

31:                                               ; preds = %28
  %32 = load ptr, ptr %5, align 8
  %33 = load ptr, ptr %32, align 8
  %34 = getelementptr inbounds ptr, ptr %33, i64 2
  %35 = load ptr, ptr %34, align 8
  %36 = call noundef ptr %35(ptr noundef nonnull align 8 dereferenceable(8) %32) #1
  store ptr %36, ptr %11, align 8
  invoke void @_ZN3nix3fmtIJPKcEEENSt7__cxx1112basic_stringIcSt11char_traitsIcESaIcEEERKS8_DpRKT_(ptr dead_on_unwind writable sret(%"class.std::__cxx11::basic_string") align 8 %8, ptr noundef nonnull align 8 dereferenceable(32) %9, ptr noundef nonnull align 8 dereferenceable(8) %11)
          to label %37 unwind label %55

37:                                               ; preds = %31
  %38 = call { i64, ptr } @_ZNKSt7__cxx1112basic_stringIcSt11char_traitsIcESaIcEEcvSt17basic_string_viewIcS2_EEv(ptr noundef nonnull align 8 dereferenceable(32) %8) #1
  %39 = getelementptr inbounds { i64, ptr }, ptr %7, i32 0, i32 0
  %40 = extractvalue { i64, ptr } %38, 0
  store i64 %40, ptr %39, align 8
  %41 = getelementptr inbounds { i64, ptr }, ptr %7, i32 0, i32 1
  %42 = extractvalue { i64, ptr } %38, 1
  store ptr %42, ptr %41, align 8
  %43 = getelementptr inbounds { i64, ptr }, ptr %7, i32 0, i32 0
  %44 = load i64, ptr %43, align 8
  %45 = getelementptr inbounds { i64, ptr }, ptr %7, i32 0, i32 1
  %46 = load ptr, ptr %45, align 8
  %47 = load ptr, ptr %29, align 8
  %48 = getelementptr inbounds ptr, ptr %47, i64 6
  %49 = load ptr, ptr %48, align 8
  invoke void %49(ptr noundef nonnull align 8 dereferenceable(8) %29, i32 noundef %30, i64 %44, ptr %46)
          to label %50 unwind label %59

50:                                               ; preds = %37
  call void @_ZNSt7__cxx1112basic_stringIcSt11char_traitsIcESaIcEED2Ev(ptr noundef nonnull align 8 dereferenceable(32) %8) #1
  call void @_ZNSt7__cxx1112basic_stringIcSt11char_traitsIcESaIcEED2Ev(ptr noundef nonnull align 8 dereferenceable(32) %9) #1
  call void @_ZNSaIcED1Ev(ptr noundef nonnull align 1 dereferenceable(1) %10) #1
  br label %65

51:                                               ; preds = %28
  %52 = landingpad { ptr, i32 }
          catch ptr null
  %53 = extractvalue { ptr, i32 } %52, 0
  store ptr %53, ptr %3, align 8
  %54 = extractvalue { ptr, i32 } %52, 1
  store i32 %54, ptr %4, align 4
  br label %64

55:                                               ; preds = %31
  %56 = landingpad { ptr, i32 }
          catch ptr null
  %57 = extractvalue { ptr, i32 } %56, 0
  store ptr %57, ptr %3, align 8
  %58 = extractvalue { ptr, i32 } %56, 1
  store i32 %58, ptr %4, align 4
  br label %63

59:                                               ; preds = %37
  %60 = landingpad { ptr, i32 }
          catch ptr null
  %61 = extractvalue { ptr, i32 } %60, 0
  store ptr %61, ptr %3, align 8
  %62 = extractvalue { ptr, i32 } %60, 1
  store i32 %62, ptr %4, align 4
  call void @_ZNSt7__cxx1112basic_stringIcSt11char_traitsIcESaIcEED2Ev(ptr noundef nonnull align 8 dereferenceable(32) %8) #1
  br label %63

63:                                               ; preds = %59, %55
  call void @_ZNSt7__cxx1112basic_stringIcSt11char_traitsIcESaIcEED2Ev(ptr noundef nonnull align 8 dereferenceable(32) %9) #1
  br label %64

64:                                               ; preds = %63, %51
  call void @_ZNSaIcED1Ev(ptr noundef nonnull align 1 dereferenceable(1) %10) #1
  invoke void @__cxa_end_catch()
          to label %74 unwind label %79

65:                                               ; preds = %50, %23
  br label %66

66:                                               ; preds = %65
  br label %67

67:                                               ; preds = %66
  invoke void @__cxa_end_catch()
          to label %68 unwind label %70

68:                                               ; preds = %67
  br label %69

69:                                               ; preds = %68
  br label %78

70:                                               ; preds = %67
  %71 = landingpad { ptr, i32 }
          catch ptr null
  %72 = extractvalue { ptr, i32 } %71, 0
  store ptr %72, ptr %3, align 8
  %73 = extractvalue { ptr, i32 } %71, 1
  store i32 %73, ptr %4, align 4
  br label %75

74:                                               ; preds = %64
  br label %75

75:                                               ; preds = %74, %70, %16
  %76 = load ptr, ptr %3, align 8
  %77 = call ptr @__cxa_begin_catch(ptr %76) #1
  call void @__cxa_end_catch()
  br label %78

78:                                               ; preds = %75, %69
  ret void

79:                                               ; preds = %64
  %80 = landingpad { ptr, i32 }
          catch ptr null
  %81 = extractvalue { ptr, i32 } %80, 0
  call void @__clang_call_terminate(ptr %81) #17
  unreachable

82:                                               ; preds = %1
  unreachable
}