; Function Attrs: mustprogress uwtable
define void @_ZN3nix15ignoreExceptionENS_9VerbosityE(i32 noundef %0) local_unnamed_addr #4 personality ptr @__gxx_personality_v0 {
  %2 = alloca %"class.std::__cxx11::basic_string", align 8
  %3 = alloca %"class.std::__cxx11::basic_string", align 8
  %4 = alloca %"class.std::allocator.0", align 1
  %5 = alloca ptr, align 8
  invoke void @__cxa_rethrow() #26
          to label %59 unwind label %6

6:                                                ; preds = %1
  %7 = landingpad { ptr, i32 }
          catch ptr @_ZTISt9exception
          catch ptr null
  %8 = extractvalue { ptr, i32 } %7, 0
  %9 = extractvalue { ptr, i32 } %7, 1
  %10 = tail call i32 @llvm.eh.typeid.for(ptr nonnull @_ZTISt9exception) #25
  %11 = icmp eq i32 %9, %10
  br i1 %11, label %12, label %53

12:                                               ; preds = %6
  %13 = tail call ptr @__cxa_begin_catch(ptr %8) #25
  %14 = load i32, ptr @_ZN3nix9verbosityE, align 4
  %.not = icmp slt i32 %14, %0
  br i1 %.not, label %49, label %15

15:                                               ; preds = %12
  %16 = load ptr, ptr @_ZN3nix6loggerE, align 8
  call void @_ZNSaIcEC1Ev(ptr noundef nonnull align 1 dereferenceable(1) %4) #25
  invoke void @_ZNSt7__cxx1112basic_stringIcSt11char_traitsIcESaIcEEC2IS3_EEPKcRKS3_(ptr noundef nonnull align 8 dereferenceable(32) %3, ptr noundef nonnull @.str.7, ptr noundef nonnull align 1 dereferenceable(1) %4)
          to label %17 unwind label %41

17:                                               ; preds = %15
  %18 = load ptr, ptr %13, align 8
  %19 = getelementptr inbounds i8, ptr %18, i64 16
  %20 = load ptr, ptr %19, align 8
  %21 = call noundef ptr %20(ptr noundef nonnull align 8 dereferenceable(8) %13) #25
  store ptr %21, ptr %5, align 8
  invoke void @_ZN3nix3fmtIJPKcEEENSt7__cxx1112basic_stringIcSt11char_traitsIcESaIcEEERKS8_DpRKT_(ptr dead_on_unwind nonnull writable sret(%"class.std::__cxx11::basic_string") align 8 %2, ptr noundef nonnull align 8 dereferenceable(32) %3, ptr noundef nonnull align 8 dereferenceable(8) %5)
          to label %22 unwind label %43

22:                                               ; preds = %17
  %23 = load ptr, ptr %2, align 8
  %24 = getelementptr inbounds i8, ptr %2, i64 8
  %25 = load i64, ptr %24, align 8
  %26 = load ptr, ptr %16, align 8
  %27 = getelementptr inbounds i8, ptr %26, i64 48
  %28 = load ptr, ptr %27, align 8
  invoke void %28(ptr noundef nonnull align 8 dereferenceable(8) %16, i32 noundef %0, i64 %25, ptr %23)
          to label %29 unwind label %45

29:                                               ; preds = %22
  %30 = load ptr, ptr %2, align 8
  %31 = getelementptr inbounds i8, ptr %2, i64 16
  %32 = icmp eq ptr %30, %31
  br i1 %32, label %_ZNKSt7__cxx1112basic_stringIcSt11char_traitsIcESaIcEE11_M_is_localEv.exit.thread.i.i, label %_ZNKSt7__cxx1112basic_stringIcSt11char_traitsIcESaIcEE11_M_is_localEv.exit.i.i

_ZNKSt7__cxx1112basic_stringIcSt11char_traitsIcESaIcEE11_M_is_localEv.exit.thread.i.i: ; preds = %29
  %33 = load i64, ptr %24, align 8
  %34 = icmp ult i64 %33, 16
  call void @llvm.assume(i1 %34)
  br label %_ZNSt7__cxx1112basic_stringIcSt11char_traitsIcESaIcEED2Ev.exit

_ZNKSt7__cxx1112basic_stringIcSt11char_traitsIcESaIcEE11_M_is_localEv.exit.i.i: ; preds = %29
  call void @_ZdlPv(ptr noundef %30) #28
  br label %_ZNSt7__cxx1112basic_stringIcSt11char_traitsIcESaIcEED2Ev.exit

_ZNSt7__cxx1112basic_stringIcSt11char_traitsIcESaIcEED2Ev.exit: ; preds = %_ZNKSt7__cxx1112basic_stringIcSt11char_traitsIcESaIcEE11_M_is_localEv.exit.thread.i.i, %_ZNKSt7__cxx1112basic_stringIcSt11char_traitsIcESaIcEE11_M_is_localEv.exit.i.i
  call void @_ZNSaIcED2Ev(ptr noundef nonnull align 1 dereferenceable(1) %2) #25
  %35 = load ptr, ptr %3, align 8
  %36 = getelementptr inbounds i8, ptr %3, i64 16
  %37 = icmp eq ptr %35, %36
  br i1 %37, label %_ZNKSt7__cxx1112basic_stringIcSt11char_traitsIcESaIcEE11_M_is_localEv.exit.thread.i.i8, label %_ZNKSt7__cxx1112basic_stringIcSt11char_traitsIcESaIcEE11_M_is_localEv.exit.i.i7

_ZNKSt7__cxx1112basic_stringIcSt11char_traitsIcESaIcEE11_M_is_localEv.exit.thread.i.i8: ; preds = %_ZNSt7__cxx1112basic_stringIcSt11char_traitsIcESaIcEED2Ev.exit
  %38 = getelementptr inbounds i8, ptr %3, i64 8
  %39 = load i64, ptr %38, align 8
  %40 = icmp ult i64 %39, 16
  call void @llvm.assume(i1 %40)
  br label %_ZNSt7__cxx1112basic_stringIcSt11char_traitsIcESaIcEED2Ev.exit9

_ZNKSt7__cxx1112basic_stringIcSt11char_traitsIcESaIcEE11_M_is_localEv.exit.i.i7: ; preds = %_ZNSt7__cxx1112basic_stringIcSt11char_traitsIcESaIcEED2Ev.exit
  call void @_ZdlPv(ptr noundef %35) #28
  br label %_ZNSt7__cxx1112basic_stringIcSt11char_traitsIcESaIcEED2Ev.exit9

_ZNSt7__cxx1112basic_stringIcSt11char_traitsIcESaIcEED2Ev.exit9: ; preds = %_ZNKSt7__cxx1112basic_stringIcSt11char_traitsIcESaIcEE11_M_is_localEv.exit.thread.i.i8, %_ZNKSt7__cxx1112basic_stringIcSt11char_traitsIcESaIcEE11_M_is_localEv.exit.i.i7
  call void @_ZNSaIcED2Ev(ptr noundef nonnull align 1 dereferenceable(1) %3) #25
  call void @_ZNSaIcED1Ev(ptr noundef nonnull align 1 dereferenceable(1) %4) #25
  br label %49

41:                                               ; preds = %15
  %42 = landingpad { ptr, i32 }
          catch ptr null
  br label %48

43:                                               ; preds = %17
  %44 = landingpad { ptr, i32 }
          catch ptr null
  br label %47

45:                                               ; preds = %22
  %46 = landingpad { ptr, i32 }
          catch ptr null
  call void @_ZNSt7__cxx1112basic_stringIcSt11char_traitsIcESaIcEED2Ev(ptr noundef nonnull align 8 dereferenceable(32) %2) #25
  br label %47

47:                                               ; preds = %45, %43
  %.pn = phi { ptr, i32 } [ %46, %45 ], [ %44, %43 ]
  call void @_ZNSt7__cxx1112basic_stringIcSt11char_traitsIcESaIcEED2Ev(ptr noundef nonnull align 8 dereferenceable(32) %3) #25
  br label %48

48:                                               ; preds = %47, %41
  %.pn.pn = phi { ptr, i32 } [ %.pn, %47 ], [ %42, %41 ]
  %.1 = extractvalue { ptr, i32 } %.pn.pn, 0
  call void @_ZNSaIcED1Ev(ptr noundef nonnull align 1 dereferenceable(1) %4) #25
  invoke void @__cxa_end_catch()
          to label %53 unwind label %56

49:                                               ; preds = %_ZNSt7__cxx1112basic_stringIcSt11char_traitsIcESaIcEED2Ev.exit9, %12
  invoke void @__cxa_end_catch()
          to label %55 unwind label %50

50:                                               ; preds = %49
  %51 = landingpad { ptr, i32 }
          catch ptr null
  %52 = extractvalue { ptr, i32 } %51, 0
  br label %53

53:                                               ; preds = %48, %50, %6
  %.2 = phi ptr [ %52, %50 ], [ %.1, %48 ], [ %8, %6 ]
  %54 = call ptr @__cxa_begin_catch(ptr %.2) #25
  call void @__cxa_end_catch()
  br label %55

55:                                               ; preds = %49, %53
  ret void

56:                                               ; preds = %48
  %57 = landingpad { ptr, i32 }
          catch ptr null
  %58 = extractvalue { ptr, i32 } %57, 0
  call void @__clang_call_terminate(ptr %58) #29
  unreachable

59:                                               ; preds = %1
  unreachable
}